target datalayout = "e-m:e-p270:32:32-p271:32:32-p272:64:64-i64:64-i128:128-f80:128-n8:16:32:64-S128"
target triple = "x86_64-pc-linux-gnu"

%struct.ec_key_st = type { ptr, ptr, ptr, i32, i32, i32, ptr, %struct.crypto_ex_data_st }
%struct.crypto_ex_data_st = type { ptr }
%struct.ecdsa_method_st = type { %struct.openssl_method_common_st, ptr, ptr, ptr, ptr, ptr, ptr, i32 }
%struct.openssl_method_common_st = type { i32, i8 }

; Function Attrs: nounwind uwtable
define hidden i32 @ECDSA_sign(i32 noundef %0, ptr noundef %1, i64 noundef %2, ptr noundef %3, ptr noundef %4, ptr noundef %5) #0 {
  %7 = alloca i32, align 4
  %8 = alloca i32, align 4
  %9 = alloca ptr, align 8
  %10 = alloca i64, align 8
  %11 = alloca ptr, align 8
  %12 = alloca ptr, align 8
  %13 = alloca ptr, align 8
  store i32 %0, ptr %8, align 4, !tbaa !6
  store ptr %1, ptr %9, align 8, !tbaa !10
  store i64 %2, ptr %10, align 8, !tbaa !13
  store ptr %3, ptr %11, align 8, !tbaa !10
  store ptr %4, ptr %12, align 8, !tbaa !15
  store ptr %5, ptr %13, align 8, !tbaa !17
  %14 = load ptr, ptr %13, align 8, !tbaa !17
  %15 = getelementptr inbounds nuw %struct.ec_key_st, ptr %14, i32 0, i32 6
  %16 = load ptr, ptr %15, align 8, !tbaa !19
  %17 = icmp ne ptr %16, null
  br i1 %17, label %18, label %37

18:                                               ; preds = %6
  %19 = load ptr, ptr %13, align 8, !tbaa !17
  %20 = getelementptr inbounds nuw %struct.ec_key_st, ptr %19, i32 0, i32 6
  %21 = load ptr, ptr %20, align 8, !tbaa !19
  %22 = getelementptr inbounds nuw %struct.ecdsa_method_st, ptr %21, i32 0, i32 5
  %23 = load ptr, ptr %22, align 8, !tbaa !27
  %24 = icmp ne ptr %23, null
  br i1 %24, label %25, label %37

25:                                               ; preds = %18
  %26 = load ptr, ptr %13, align 8, !tbaa !17
  %27 = getelementptr inbounds nuw %struct.ec_key_st, ptr %26, i32 0, i32 6
  %28 = load ptr, ptr %27, align 8, !tbaa !19
  %29 = getelementptr inbounds nuw %struct.ecdsa_method_st, ptr %28, i32 0, i32 5
  %30 = load ptr, ptr %29, align 8, !tbaa !27
  %31 = load ptr, ptr %9, align 8, !tbaa !10
  %32 = load i64, ptr %10, align 8, !tbaa !13
  %33 = load ptr, ptr %11, align 8, !tbaa !10
  %34 = load ptr, ptr %12, align 8, !tbaa !15
  %35 = load ptr, ptr %13, align 8, !tbaa !17
  %36 = call i32 %30(ptr noundef %31, i64 noundef %32, ptr noundef %33, ptr noundef %34, ptr noundef %35)
  store i32 %36, ptr %7, align 4
  br label %45

37:                                               ; preds = %18, %6
  %38 = load i32, ptr %8, align 4, !tbaa !6
  %39 = load ptr, ptr %9, align 8, !tbaa !10
  %40 = load i64, ptr %10, align 8, !tbaa !13
  %41 = load ptr, ptr %11, align 8, !tbaa !10
  %42 = load ptr, ptr %12, align 8, !tbaa !15
  %43 = load ptr, ptr %13, align 8, !tbaa !17
  %44 = call i32 @ECDSA_sign_ex(i32 noundef %38, ptr noundef %39, i64 noundef %40, ptr noundef %41, ptr noundef %42, ptr noundef null, ptr noundef null, ptr noundef %43)
  store i32 %44, ptr %7, align 4
  br label %45

45:                                               ; preds = %37, %25
  %46 = load i32, ptr %7, align 4
  ret i32 %46
}