; Function Attrs: nounwind uwtable
define hidden i32 @ECDSA_sign(i32 noundef %0, ptr noundef %1, i64 noundef %2, ptr noundef %3, ptr noundef %4, ptr noundef %5) local_unnamed_addr #0 {
  %7 = getelementptr inbounds nuw i8, ptr %5, i64 40
  %8 = load ptr, ptr %7, align 8, !tbaa !6
  %.not = icmp eq ptr %8, null
  br i1 %.not, label %14, label %9

9:                                                ; preds = %6
  %10 = getelementptr inbounds nuw i8, ptr %8, i64 40
  %11 = load ptr, ptr %10, align 8, !tbaa !18
  %.not16 = icmp eq ptr %11, null
  br i1 %.not16, label %14, label %12

12:                                               ; preds = %9
  %13 = tail call i32 %11(ptr noundef %1, i64 noundef %2, ptr noundef %3, ptr noundef %4, ptr noundef nonnull %5) #5
  br label %16

14:                                               ; preds = %9, %6
  %15 = tail call i32 @ECDSA_sign_ex(i32 poison, ptr noundef %1, i64 noundef %2, ptr noundef %3, ptr noundef %4, ptr noundef null, ptr noundef null, ptr noundef nonnull %5)
  br label %16

16:                                               ; preds = %14, %12
  %.0 = phi i32 [ %13, %12 ], [ %15, %14 ]
  ret i32 %.0
}